; Function Attrs: mustprogress nofree nounwind memory(read, argmem: readwrite, inaccessiblemem: none) uwtable
define hidden void @_ZN15SignatureStream19skip_to_return_typeEv(ptr nocapture noundef nonnull align 8 dereferenceable(48) %0) local_unnamed_addr #2 align 2 {
  %2 = getelementptr inbounds i8, ptr %0, i64 28
  %3 = load i32, ptr %2, align 4
  %4 = icmp eq i32 %3, 3
  br i1 %4, label %._crit_edge, label %.lr.ph

.lr.ph:                                           ; preds = %1, %.lr.ph
  tail call void @_ZN15SignatureStream4nextEv(ptr noundef nonnull align 8 dereferenceable(48) %0)
  %5 = load i32, ptr %2, align 4
  %6 = icmp eq i32 %5, 3
  br i1 %6, label %._crit_edge, label %.lr.ph, !llvm.loop !6

._crit_edge:                                      ; preds = %.lr.ph, %1
  ret void
}